target datalayout = "e-m:e-p270:32:32-p271:32:32-p272:64:64-i64:64-i128:128-f80:128-n8:16:32:64-S128"
target triple = "x86_64-pc-linux-gnu"

%struct.job_record = type { i32, ptr, ptr, ptr, ptr, i16, i32, i32, i32, ptr, i32, ptr, ptr, i16, ptr, double, i64, ptr, ptr, ptr, ptr, ptr, ptr, i32, ptr, i32, i64, i64, i32, i32, ptr, i16, i64, i64, i8, i32, ptr, ptr, ptr, ptr, ptr, ptr, ptr, ptr, i32, ptr, ptr, i32, ptr, i32, ptr, i32, ptr, i32, ptr, ptr, ptr, ptr, ptr, ptr, i32, i16, i64, ptr, ptr, ptr, ptr, %struct.acct_policy_limit_set_t, i16, ptr, ptr, ptr, ptr, ptr, i32, ptr, ptr, ptr, ptr, ptr, i32, i32, ptr, ptr, ptr, i16, ptr, ptr, i8, ptr, ptr, i64, i64, i8, i32, i32, i8, i32, ptr, i32, i64, i32, ptr, ptr, ptr, i8, i16, i64, i32, ptr, ptr, ptr, ptr, ptr, i16, i32, ptr, ptr, ptr, ptr, i32, ptr, i32, i16, i64, ptr, i32, i32, ptr, i64, ptr, ptr, i64, i32, i32, i64, i32, i32, ptr, ptr, ptr, ptr, ptr, ptr, ptr, ptr, ptr, ptr, ptr, ptr, i32, ptr, i16, i16, i16, i16, ptr, i32, i32, i8, i64 }
%struct.acct_policy_limit_set_t = type { i16, i16, ptr }

@resume_job_list = dso_local global ptr null, align 8
@.str.11 = private unnamed_addr constant [13 x i8] c"power_save.c\00", align 1
@power_down_node_bitmap = external global ptr, align 8
@__func__._build_resume_job_list = private unnamed_addr constant [23 x i8] c"_build_resume_job_list\00", align 1

; Function Attrs: nounwind uwtable
define internal i32 @_build_resume_job_list(ptr noundef %0, ptr noundef %1) #0 {
  %3 = alloca ptr, align 8
  %4 = alloca ptr, align 8
  %5 = alloca ptr, align 8
  %6 = alloca ptr, align 8
  store ptr %0, ptr %3, align 8
  store ptr %1, ptr %4, align 8
  call void @llvm.lifetime.start.p0(i64 8, ptr %5) #9
  %7 = load ptr, ptr %3, align 8
  store ptr %7, ptr %5, align 8
  %8 = load ptr, ptr %5, align 8
  %9 = getelementptr inbounds nuw %struct.job_record, ptr %8, i32 0, i32 60
  %10 = load i32, ptr %9, align 8
  %11 = zext i32 %10 to i64
  %12 = and i64 %11, 16384
  %13 = icmp ne i64 %12, 0
  br i1 %13, label %14, label %29

14:                                               ; preds = %2
  %15 = load ptr, ptr %5, align 8
  %16 = getelementptr inbounds nuw %struct.job_record, ptr %15, i32 0, i32 77
  %17 = load ptr, ptr %16, align 8
  %18 = load ptr, ptr @power_down_node_bitmap, align 8
  %19 = call i32 @bit_overlap_any(ptr noundef %17, ptr noundef %18)
  %20 = icmp ne i32 %19, 0
  br i1 %20, label %21, label %29

21:                                               ; preds = %14
  call void @llvm.lifetime.start.p0(i64 8, ptr %6) #9
  %22 = call ptr @slurm_xcalloc(i64 noundef 1, i64 noundef 4, i1 noundef zeroext true, i1 noundef zeroext false, ptr noundef @.str.11, i32 noundef 1198, ptr noundef @__func__._build_resume_job_list)
  store ptr %22, ptr %6, align 8
  %23 = load ptr, ptr %5, align 8
  %24 = getelementptr inbounds nuw %struct.job_record, ptr %23, i32 0, i32 53
  %25 = load i32, ptr %24, align 8
  %26 = load ptr, ptr %6, align 8
  store i32 %25, ptr %26, align 4
  %27 = load ptr, ptr @resume_job_list, align 8
  %28 = load ptr, ptr %6, align 8
  call void @list_append(ptr noundef %27, ptr noundef %28)
  call void @llvm.lifetime.end.p0(i64 8, ptr %6) #9
  br label %29

29:                                               ; preds = %21, %14, %2
  call void @llvm.lifetime.end.p0(i64 8, ptr %5) #9
  ret i32 0
}