; Function Attrs: nounwind uwtable
define internal noundef i32 @_build_resume_job_list(ptr noundef readonly captures(none) %0, ptr readnone captures(none) %1) #0 {
  %3 = getelementptr inbounds nuw i8, ptr %0, i64 448
  %4 = load i32, ptr %3, align 8
  %5 = and i32 %4, 16384
  %.not = icmp eq i32 %5, 0
  br i1 %.not, label %16, label %6

6:                                                ; preds = %2
  %7 = getelementptr inbounds nuw i8, ptr %0, i64 584
  %8 = load ptr, ptr %7, align 8
  %9 = load ptr, ptr @power_down_node_bitmap, align 8
  %10 = tail call i32 @bit_overlap_any(ptr noundef %8, ptr noundef %9) #12
  %.not6 = icmp eq i32 %10, 0
  br i1 %.not6, label %16, label %11

11:                                               ; preds = %6
  %12 = tail call ptr @slurm_xcalloc(i64 noundef 1, i64 noundef 4, i1 noundef zeroext true, i1 noundef zeroext false, ptr noundef nonnull @.str.11, i32 noundef 1198, ptr noundef nonnull @__func__._build_resume_job_list) #12
  %13 = getelementptr inbounds nuw i8, ptr %0, i64 392
  %14 = load i32, ptr %13, align 8
  store i32 %14, ptr %12, align 4
  %15 = load ptr, ptr @resume_job_list, align 8
  tail call void @list_append(ptr noundef %15, ptr noundef nonnull %12) #12
  br label %16

16:                                               ; preds = %11, %6, %2
  ret i32 0
}